target datalayout = "e-m:e-p270:32:32-p271:32:32-p272:64:64-i64:64-i128:128-f80:128-n8:16:32:64-S128"
target triple = "x86_64-pc-linux-gnu"

%struct.ident_t = type { i32, i32, i32, i32, ptr }
%"struct.faiss::ZnSphereSearch" = type { i32, i32, i32, %"class.std::vector.11" }
%"class.std::vector.11" = type { %"struct.std::_Vector_base.12" }
%"struct.std::_Vector_base.12" = type { %"struct.std::_Vector_base<float, std::allocator<float>>::_Vector_impl" }
%"struct.std::_Vector_base<float, std::allocator<float>>::_Vector_impl" = type { %"struct.std::_Vector_base<float, std::allocator<float>>::_Vector_impl_data" }
%"struct.std::_Vector_base<float, std::allocator<float>>::_Vector_impl_data" = type { ptr, ptr, ptr }

@1 = private unnamed_addr constant %struct.ident_t { i32 0, i32 514, i32 0, i32 22, ptr @0 }, align 8
@2 = private unnamed_addr constant %struct.ident_t { i32 0, i32 66, i32 0, i32 22, ptr @0 }, align 8

; Function Attrs: noinline norecurse nounwind uwtable
define internal void @_ZN5faiss14ZnSphereSearch12search_multiEiPKfPfS3_.omp_outlined(ptr noalias noundef %0, ptr noalias noundef %1, ptr noundef nonnull align 4 dereferenceable(4) %2, ptr noundef nonnull align 8 dereferenceable(8) %3, ptr noundef %4, ptr noundef nonnull align 8 dereferenceable(8) %5, ptr noundef nonnull align 8 dereferenceable(8) %6) #15 personality ptr @__gxx_personality_v0 {
  %8 = alloca ptr, align 8
  %9 = alloca ptr, align 8
  %10 = alloca ptr, align 8
  %11 = alloca ptr, align 8
  %12 = alloca ptr, align 8
  %13 = alloca ptr, align 8
  %14 = alloca ptr, align 8
  %15 = alloca i32, align 4
  %16 = alloca i32, align 4
  %17 = alloca i32, align 4
  %18 = alloca i32, align 4
  %19 = alloca i32, align 4
  %20 = alloca i32, align 4
  %21 = alloca i32, align 4
  %22 = alloca i32, align 4
  %23 = alloca i32, align 4
  store ptr %0, ptr %8, align 8, !tbaa !196
  store ptr %1, ptr %9, align 8, !tbaa !196
  store ptr %2, ptr %10, align 8, !tbaa !196
  store ptr %3, ptr %11, align 8, !tbaa !198
  store ptr %4, ptr %12, align 8, !tbaa !217
  store ptr %5, ptr %13, align 8, !tbaa !198
  store ptr %6, ptr %14, align 8, !tbaa !198
  %24 = load ptr, ptr %10, align 8, !tbaa !196
  %25 = load ptr, ptr %11, align 8, !tbaa !198
  %26 = load ptr, ptr %12, align 8, !tbaa !217
  %27 = load ptr, ptr %13, align 8, !tbaa !198
  %28 = load ptr, ptr %14, align 8, !tbaa !198
  call void @llvm.lifetime.start.p0(i64 4, ptr %15) #3
  call void @llvm.lifetime.start.p0(i64 4, ptr %16) #3
  %29 = load i32, ptr %24, align 4, !tbaa !13
  store i32 %29, ptr %16, align 4, !tbaa !13
  call void @llvm.lifetime.start.p0(i64 4, ptr %17) #3
  %30 = load i32, ptr %16, align 4, !tbaa !13
  %31 = sub nsw i32 %30, 0
  %32 = sdiv i32 %31, 1
  %33 = sub nsw i32 %32, 1
  store i32 %33, ptr %17, align 4, !tbaa !13
  call void @llvm.lifetime.start.p0(i64 4, ptr %18) #3
  store i32 0, ptr %18, align 4, !tbaa !13
  call void @llvm.lifetime.end.p0(i64 4, ptr %18) #3
  %34 = load i32, ptr %16, align 4, !tbaa !13
  %35 = icmp slt i32 0, %34
  br i1 %35, label %36, label %87

36:                                               ; preds = %7
  call void @llvm.lifetime.start.p0(i64 4, ptr %19) #3
  store i32 0, ptr %19, align 4, !tbaa !13
  call void @llvm.lifetime.start.p0(i64 4, ptr %20) #3
  %37 = load i32, ptr %17, align 4, !tbaa !13
  store i32 %37, ptr %20, align 4, !tbaa !13
  call void @llvm.lifetime.start.p0(i64 4, ptr %21) #3
  store i32 1, ptr %21, align 4, !tbaa !13
  call void @llvm.lifetime.start.p0(i64 4, ptr %22) #3
  store i32 0, ptr %22, align 4, !tbaa !13
  call void @llvm.lifetime.start.p0(i64 4, ptr %23) #3
  %38 = load ptr, ptr %8, align 8
  %39 = load i32, ptr %38, align 4, !tbaa !13
  call void @__kmpc_for_static_init_4(ptr @1, i32 %39, i32 34, ptr %22, ptr %19, ptr %20, ptr %21, i32 1, i32 1)
  %40 = load i32, ptr %20, align 4, !tbaa !13
  %41 = load i32, ptr %17, align 4, !tbaa !13
  %42 = icmp sgt i32 %40, %41
  br i1 %42, label %43, label %45

43:                                               ; preds = %36
  %44 = load i32, ptr %17, align 4, !tbaa !13
  br label %47

45:                                               ; preds = %36
  %46 = load i32, ptr %20, align 4, !tbaa !13
  br label %47

47:                                               ; preds = %45, %43
  %48 = phi i32 [ %44, %43 ], [ %46, %45 ]
  store i32 %48, ptr %20, align 4, !tbaa !13
  %49 = load i32, ptr %19, align 4, !tbaa !13
  store i32 %49, ptr %15, align 4, !tbaa !13
  br label %50

50:                                               ; preds = %80, %47
  %51 = load i32, ptr %15, align 4, !tbaa !13
  %52 = load i32, ptr %20, align 4, !tbaa !13
  %53 = icmp sle i32 %51, %52
  br i1 %53, label %55, label %54

54:                                               ; preds = %50
  br label %83

55:                                               ; preds = %50
  %56 = load i32, ptr %15, align 4, !tbaa !13
  %57 = mul nsw i32 %56, 1
  %58 = add nsw i32 0, %57
  store i32 %58, ptr %23, align 4, !tbaa !13
  %59 = load ptr, ptr %27, align 8, !tbaa !9
  %60 = load i32, ptr %23, align 4, !tbaa !13
  %61 = getelementptr inbounds nuw %"struct.faiss::ZnSphereSearch", ptr %26, i32 0, i32 0
  %62 = load i32, ptr %61, align 8, !tbaa !219
  %63 = mul nsw i32 %60, %62
  %64 = sext i32 %63 to i64
  %65 = getelementptr inbounds float, ptr %59, i64 %64
  %66 = load ptr, ptr %28, align 8, !tbaa !9
  %67 = load i32, ptr %23, align 4, !tbaa !13
  %68 = getelementptr inbounds nuw %"struct.faiss::ZnSphereSearch", ptr %26, i32 0, i32 0
  %69 = load i32, ptr %68, align 8, !tbaa !219
  %70 = mul nsw i32 %67, %69
  %71 = sext i32 %70 to i64
  %72 = getelementptr inbounds float, ptr %66, i64 %71
  %73 = invoke noundef float @_ZNK5faiss14ZnSphereSearch6searchEPKfPf(ptr noundef nonnull align 8 dereferenceable(40) %26, ptr noundef %65, ptr noundef %72)
          to label %74 unwind label %90

74:                                               ; preds = %55
  %75 = load ptr, ptr %25, align 8, !tbaa !9
  %76 = load i32, ptr %23, align 4, !tbaa !13
  %77 = sext i32 %76 to i64
  %78 = getelementptr inbounds float, ptr %75, i64 %77
  store float %73, ptr %78, align 4, !tbaa !36
  br label %79

79:                                               ; preds = %74
  br label %80

80:                                               ; preds = %79
  %81 = load i32, ptr %15, align 4, !tbaa !13
  %82 = add nsw i32 %81, 1
  store i32 %82, ptr %15, align 4, !tbaa !13
  br label %50

83:                                               ; preds = %54
  br label %84

84:                                               ; preds = %83
  %85 = load ptr, ptr %8, align 8
  %86 = load i32, ptr %85, align 4, !tbaa !13
  call void @__kmpc_for_static_fini(ptr @1, i32 %86)
  call void @llvm.lifetime.end.p0(i64 4, ptr %23) #3
  call void @llvm.lifetime.end.p0(i64 4, ptr %22) #3
  call void @llvm.lifetime.end.p0(i64 4, ptr %21) #3
  call void @llvm.lifetime.end.p0(i64 4, ptr %20) #3
  call void @llvm.lifetime.end.p0(i64 4, ptr %19) #3
  br label %87

87:                                               ; preds = %84, %7
  call void @llvm.lifetime.end.p0(i64 4, ptr %17) #3
  call void @llvm.lifetime.end.p0(i64 4, ptr %16) #3
  call void @llvm.lifetime.end.p0(i64 4, ptr %15) #3
  %88 = load ptr, ptr %8, align 8
  %89 = load i32, ptr %88, align 4, !tbaa !13
  call void @__kmpc_barrier(ptr @2, i32 %89)
  ret void

90:                                               ; preds = %55
  %91 = landingpad { ptr, i32 }
          catch ptr null
  %92 = extractvalue { ptr, i32 } %91, 0
  call void @__clang_call_terminate(ptr %92) #21
  unreachable
}