; Function Attrs: noinline norecurse nounwind uwtable
define internal void @_ZN5faiss14ZnSphereSearch12search_multiEiPKfPfS3_.omp_outlined(ptr noalias noundef readonly captures(none) %0, ptr noalias readnone captures(none) %1, ptr noundef nonnull readonly align 4 captures(none) dereferenceable(4) %2, ptr noundef nonnull readonly align 8 captures(none) dereferenceable(8) %3, ptr noundef readonly captures(none) %4, ptr noundef nonnull readonly align 8 captures(none) dereferenceable(8) %5, ptr noundef nonnull readonly align 8 captures(none) dereferenceable(8) %6) #14 personality ptr @__gxx_personality_v0 {
  %8 = alloca i32, align 4
  %9 = alloca i32, align 4
  %10 = alloca i32, align 4
  %11 = alloca i32, align 4
  %12 = load i32, ptr %2, align 4, !tbaa !45
  %13 = icmp sgt i32 %12, 0
  %.pre = load i32, ptr %0, align 4, !tbaa !45
  br i1 %13, label %14, label %33

14:                                               ; preds = %7
  %15 = add nsw i32 %12, -1
  call void @llvm.lifetime.start.p0(i64 4, ptr nonnull %8) #15
  store i32 0, ptr %8, align 4, !tbaa !45
  call void @llvm.lifetime.start.p0(i64 4, ptr nonnull %9) #15
  store i32 %15, ptr %9, align 4, !tbaa !45
  call void @llvm.lifetime.start.p0(i64 4, ptr nonnull %10) #15
  store i32 1, ptr %10, align 4, !tbaa !45
  call void @llvm.lifetime.start.p0(i64 4, ptr nonnull %11) #15
  store i32 0, ptr %11, align 4, !tbaa !45
  call void @__kmpc_for_static_init_4(ptr nonnull @1, i32 %.pre, i32 34, ptr nonnull %11, ptr nonnull %8, ptr nonnull %9, ptr nonnull %10, i32 1, i32 1)
  %16 = load i32, ptr %9, align 4, !tbaa !45
  %17 = call i32 @llvm.smin.i32(i32 %16, i32 %15)
  store i32 %17, ptr %9, align 4, !tbaa !45
  %18 = load i32, ptr %8, align 4, !tbaa !45
  %.not18 = icmp sgt i32 %18, %17
  br i1 %.not18, label %._crit_edge, label %.lr.ph.preheader

.lr.ph.preheader:                                 ; preds = %14
  %19 = sext i32 %18 to i64
  br label %.lr.ph

.lr.ph:                                           ; preds = %.lr.ph.preheader, %28
  %indvars.iv = phi i64 [ %19, %.lr.ph.preheader ], [ %indvars.iv.next, %28 ]
  %20 = load ptr, ptr %5, align 8, !tbaa !98
  %21 = load i32, ptr %4, align 8, !tbaa !105
  %22 = sext i32 %21 to i64
  %23 = mul nsw i64 %indvars.iv, %22
  %24 = getelementptr inbounds float, ptr %20, i64 %23
  %25 = load ptr, ptr %6, align 8, !tbaa !98
  %26 = getelementptr inbounds float, ptr %25, i64 %23
  %27 = invoke noundef float @_ZNK5faiss14ZnSphereSearch6searchEPKfPf(ptr noundef nonnull align 8 dereferenceable(40) %4, ptr noundef %24, ptr noundef %26)
          to label %28 unwind label %34

28:                                               ; preds = %.lr.ph
  %29 = load ptr, ptr %3, align 8, !tbaa !98
  %30 = getelementptr inbounds float, ptr %29, i64 %indvars.iv
  store float %27, ptr %30, align 4, !tbaa !32
  %indvars.iv.next = add nsw i64 %indvars.iv, 1
  %31 = load i32, ptr %9, align 4, !tbaa !45
  %32 = sext i32 %31 to i64
  %.not.not = icmp slt i64 %indvars.iv, %32
  br i1 %.not.not, label %.lr.ph, label %._crit_edge

._crit_edge:                                      ; preds = %28, %14
  call void @__kmpc_for_static_fini(ptr nonnull @1, i32 %.pre)
  call void @llvm.lifetime.end.p0(i64 4, ptr nonnull %11) #15
  call void @llvm.lifetime.end.p0(i64 4, ptr nonnull %10) #15
  call void @llvm.lifetime.end.p0(i64 4, ptr nonnull %9) #15
  call void @llvm.lifetime.end.p0(i64 4, ptr nonnull %8) #15
  br label %33

33:                                               ; preds = %._crit_edge, %7
  call void @__kmpc_barrier(ptr nonnull @2, i32 %.pre)
  ret void

34:                                               ; preds = %.lr.ph
  %35 = landingpad { ptr, i32 }
          catch ptr null
  %36 = extractvalue { ptr, i32 } %35, 0
  call void @__clang_call_terminate(ptr %36) #28
  unreachable
}